target datalayout = "e-m:e-p270:32:32-p271:32:32-p272:64:64-i64:64-i128:128-f80:128-n8:16:32:64-S128"
target triple = "x86_64-pc-linux-gnu"

@.str.3 = private unnamed_addr constant [2 x i8] c"\0A\00", align 1
@.str.4 = private unnamed_addr constant [40 x i8] c"    equiv_simple [options] [selection]\0A\00", align 1
@.str.5 = private unnamed_addr constant [78 x i8] c"This command tries to prove $equiv cells using a simple direct SAT approach.\0A\00", align 1
@.str.6 = private unnamed_addr constant [8 x i8] c"    -v\0A\00", align 1
@.str.7 = private unnamed_addr constant [24 x i8] c"        verbose output\0A\00", align 1
@.str.8 = private unnamed_addr constant [12 x i8] c"    -undef\0A\00", align 1
@.str.9 = private unnamed_addr constant [42 x i8] c"        enable modelling of undef states\0A\00", align 1
@.str.10 = private unnamed_addr constant [12 x i8] c"    -short\0A\00", align 1
@.str.11 = private unnamed_addr constant [75 x i8] c"        create shorter input cones that stop at shared nodes. This yields\0A\00", align 1
@.str.12 = private unnamed_addr constant [72 x i8] c"        simpler SAT problems but sometimes fails to prove equivalence.\0A\00", align 1
@.str.13 = private unnamed_addr constant [14 x i8] c"    -nogroup\0A\00", align 1
@.str.14 = private unnamed_addr constant [59 x i8] c"        disabling grouping of $equiv cells by output wire\0A\00", align 1
@.str.15 = private unnamed_addr constant [14 x i8] c"    -seq <N>\0A\00", align 1
@.str.16 = private unnamed_addr constant [70 x i8] c"        the max. number of time steps to be considered (default = 1)\0A\00", align 1

; Function Attrs: mustprogress uwtable
define internal void @_ZN12_GLOBAL__N_115EquivSimplePass4helpEv(ptr noundef nonnull align 8 dereferenceable(104) %0) unnamed_addr #4 align 2 {
  %2 = alloca ptr, align 8
  store ptr %0, ptr %2, align 8
  call void (ptr, ...) @_ZN5Yosys3logEPKcz(ptr noundef @.str.3)
  call void (ptr, ...) @_ZN5Yosys3logEPKcz(ptr noundef @.str.4)
  call void (ptr, ...) @_ZN5Yosys3logEPKcz(ptr noundef @.str.3)
  call void (ptr, ...) @_ZN5Yosys3logEPKcz(ptr noundef @.str.5)
  call void (ptr, ...) @_ZN5Yosys3logEPKcz(ptr noundef @.str.3)
  call void (ptr, ...) @_ZN5Yosys3logEPKcz(ptr noundef @.str.6)
  call void (ptr, ...) @_ZN5Yosys3logEPKcz(ptr noundef @.str.7)
  call void (ptr, ...) @_ZN5Yosys3logEPKcz(ptr noundef @.str.3)
  call void (ptr, ...) @_ZN5Yosys3logEPKcz(ptr noundef @.str.8)
  call void (ptr, ...) @_ZN5Yosys3logEPKcz(ptr noundef @.str.9)
  call void (ptr, ...) @_ZN5Yosys3logEPKcz(ptr noundef @.str.3)
  call void (ptr, ...) @_ZN5Yosys3logEPKcz(ptr noundef @.str.10)
  call void (ptr, ...) @_ZN5Yosys3logEPKcz(ptr noundef @.str.11)
  call void (ptr, ...) @_ZN5Yosys3logEPKcz(ptr noundef @.str.12)
  call void (ptr, ...) @_ZN5Yosys3logEPKcz(ptr noundef @.str.3)
  call void (ptr, ...) @_ZN5Yosys3logEPKcz(ptr noundef @.str.13)
  call void (ptr, ...) @_ZN5Yosys3logEPKcz(ptr noundef @.str.14)
  call void (ptr, ...) @_ZN5Yosys3logEPKcz(ptr noundef @.str.3)
  call void (ptr, ...) @_ZN5Yosys3logEPKcz(ptr noundef @.str.15)
  call void (ptr, ...) @_ZN5Yosys3logEPKcz(ptr noundef @.str.16)
  call void (ptr, ...) @_ZN5Yosys3logEPKcz(ptr noundef @.str.3)
  ret void
}